target datalayout = "e-m:e-p270:32:32-p271:32:32-p272:64:64-i64:64-i128:128-f80:128-n8:16:32:64-S128"
target triple = "x86_64-pc-linux-gnu"

%struct.st_str_end_key = type { ptr, ptr }

; Function Attrs: nounwind uwtable
define internal i32 @str_end_hash(ptr noundef %0) #0 {
  %2 = alloca ptr, align 8
  %3 = alloca ptr, align 8
  %4 = alloca i32, align 4
  store ptr %0, ptr %2, align 8, !tbaa !9
  call void @llvm.lifetime.start.p0(i64 8, ptr %3) #8
  call void @llvm.lifetime.start.p0(i64 4, ptr %4) #8
  store i32 0, ptr %4, align 4, !tbaa !10
  %5 = load ptr, ptr %2, align 8, !tbaa !9
  %6 = getelementptr inbounds nuw %struct.st_str_end_key, ptr %5, i32 0, i32 0
  %7 = load ptr, ptr %6, align 8, !tbaa !17
  store ptr %7, ptr %3, align 8, !tbaa !4
  br label %8

8:                                                ; preds = %14, %1
  %9 = load ptr, ptr %3, align 8, !tbaa !4
  %10 = load ptr, ptr %2, align 8, !tbaa !9
  %11 = getelementptr inbounds nuw %struct.st_str_end_key, ptr %10, i32 0, i32 1
  %12 = load ptr, ptr %11, align 8, !tbaa !15
  %13 = icmp ult ptr %9, %12
  br i1 %13, label %14, label %22

14:                                               ; preds = %8
  %15 = load i32, ptr %4, align 4, !tbaa !10
  %16 = mul i32 %15, 997
  %17 = load ptr, ptr %3, align 8, !tbaa !4
  %18 = getelementptr inbounds nuw i8, ptr %17, i32 1
  store ptr %18, ptr %3, align 8, !tbaa !4
  %19 = load i8, ptr %17, align 1, !tbaa !12
  %20 = zext i8 %19 to i32
  %21 = add i32 %16, %20
  store i32 %21, ptr %4, align 4, !tbaa !10
  br label %8, !llvm.loop !19

22:                                               ; preds = %8
  %23 = load i32, ptr %4, align 4, !tbaa !10
  %24 = load i32, ptr %4, align 4, !tbaa !10
  %25 = lshr i32 %24, 5
  %26 = add i32 %23, %25
  call void @llvm.lifetime.end.p0(i64 4, ptr %4) #8
  call void @llvm.lifetime.end.p0(i64 8, ptr %3) #8
  ret i32 %26
}