; Function Attrs: nofree norecurse nosync nounwind memory(read, inaccessiblemem: none) uwtable
define internal i32 @str_end_hash(ptr noundef readonly captures(none) %0) #8 {
  %2 = load ptr, ptr %0, align 8, !tbaa !16
  %3 = getelementptr inbounds nuw i8, ptr %0, i64 8
  %4 = load ptr, ptr %3, align 8, !tbaa !13
  %5 = icmp ult ptr %2, %4
  br i1 %5, label %.lr.ph, label %._crit_edge

.lr.ph:                                           ; preds = %1, %.lr.ph
  %.08 = phi i32 [ %10, %.lr.ph ], [ 0, %1 ]
  %.067 = phi ptr [ %7, %.lr.ph ], [ %2, %1 ]
  %6 = mul i32 %.08, 997
  %7 = getelementptr inbounds nuw i8, ptr %.067, i64 1
  %8 = load i8, ptr %.067, align 1, !tbaa !10
  %9 = zext i8 %8 to i32
  %10 = add i32 %6, %9
  %exitcond.not = icmp eq ptr %7, %4
  br i1 %exitcond.not, label %._crit_edge, label %.lr.ph, !llvm.loop !18

._crit_edge:                                      ; preds = %.lr.ph, %1
  %.0.lcssa = phi i32 [ 0, %1 ], [ %10, %.lr.ph ]
  %11 = lshr i32 %.0.lcssa, 5
  %12 = add i32 %11, %.0.lcssa
  ret i32 %12
}